; Function Attrs: mustprogress nounwind uwtable
define noundef range(i64 -9223372036854775807, -9223372036854775808) i64 @_ZN5folly13AsyncFdSocket9addSeqNumEll(i64 noundef %0, i64 noundef %1) local_unnamed_addr #1 align 2 personality ptr @__gxx_personality_v0 {
  %3 = alloca %"class.google::LogMessage", align 8
  %4 = or i64 %1, %0
  %or.cond.not = icmp sgt i64 %4, -1
  br i1 %or.cond.not, label %13, label %5

5:                                                ; preds = %2
  call void @llvm.lifetime.start.p0(i64 16, ptr nonnull %3) #28
  invoke void @_ZN6google10LogMessageC1EPKcii(ptr noundef nonnull align 8 dereferenceable(16) %3, ptr noundef nonnull @.str.4, i32 noundef 370, i32 noundef 2)
          to label %6 unwind label %21

6:                                                ; preds = %5
  %7 = invoke noundef nonnull align 8 dereferenceable(8) ptr @_ZN6google10LogMessage6streamEv(ptr noundef nonnull align 8 dereferenceable(16) %3)
          to label %8 unwind label %21

8:                                                ; preds = %6
  %9 = invoke noundef nonnull align 8 dereferenceable(8) ptr @_ZSt16__ostream_insertIcSt11char_traitsIcEERSt13basic_ostreamIT_T0_ES6_PKS3_l(ptr noundef nonnull align 8 dereferenceable(8) %7, ptr noundef nonnull @.str.35, i64 noundef 32)
          to label %_ZStlsISt11char_traitsIcEERSt13basic_ostreamIcT_ES5_PKc.exit unwind label %21

_ZStlsISt11char_traitsIcEERSt13basic_ostreamIcT_ES5_PKc.exit: ; preds = %8
  %10 = invoke noundef nonnull align 8 dereferenceable(8) ptr @_ZNSo9_M_insertIlEERSoT_(ptr noundef nonnull align 8 dereferenceable(8) %7, i64 noundef %0)
          to label %_ZNSolsEl.exit unwind label %21

_ZNSolsEl.exit:                                   ; preds = %_ZStlsISt11char_traitsIcEERSt13basic_ostreamIcT_ES5_PKc.exit
  %11 = invoke noundef nonnull align 8 dereferenceable(8) ptr @_ZSt16__ostream_insertIcSt11char_traitsIcEERSt13basic_ostreamIT_T0_ES6_PKS3_l(ptr noundef nonnull align 8 dereferenceable(8) %10, ptr noundef nonnull @.str.36, i64 noundef 3)
          to label %_ZStlsISt11char_traitsIcEERSt13basic_ostreamIcT_ES5_PKc.exit16 unwind label %21

_ZStlsISt11char_traitsIcEERSt13basic_ostreamIcT_ES5_PKc.exit16: ; preds = %_ZNSolsEl.exit
  %12 = invoke noundef nonnull align 8 dereferenceable(8) ptr @_ZNSo9_M_insertIlEERSoT_(ptr noundef nonnull align 8 dereferenceable(8) %10, i64 noundef %1)
          to label %_ZNSolsEl.exit17 unwind label %21

_ZNSolsEl.exit17:                                 ; preds = %_ZStlsISt11char_traitsIcEERSt13basic_ostreamIcT_ES5_PKc.exit16
  call void @_ZN6google10LogMessageD1Ev(ptr noundef nonnull align 8 dereferenceable(16) %3) #28
  call void @llvm.lifetime.end.p0(i64 16, ptr nonnull %3) #28
  br label %20

13:                                               ; preds = %2
  %14 = sub nsw i64 9223372036854775807, %0
  %.not = icmp sgt i64 %1, %14
  br i1 %.not, label %17, label %15, !prof !216

15:                                               ; preds = %13
  %16 = add nuw nsw i64 %1, %0
  br label %20

17:                                               ; preds = %13
  %18 = xor i64 %0, -9223372036854775808
  %19 = add nsw i64 %1, %18
  br label %20

20:                                               ; preds = %15, %17, %_ZNSolsEl.exit17
  %.0 = phi i64 [ -1, %_ZNSolsEl.exit17 ], [ %16, %15 ], [ %19, %17 ]
  ret i64 %.0

21:                                               ; preds = %_ZStlsISt11char_traitsIcEERSt13basic_ostreamIcT_ES5_PKc.exit16, %_ZNSolsEl.exit, %_ZStlsISt11char_traitsIcEERSt13basic_ostreamIcT_ES5_PKc.exit, %8, %6, %5
  %22 = landingpad { ptr, i32 }
          catch ptr null
  %23 = extractvalue { ptr, i32 } %22, 0
  call void @__clang_call_terminate(ptr %23) #26
  unreachable
}